target datalayout = "e-m:e-p270:32:32-p271:32:32-p272:64:64-i64:64-i128:128-f80:128-n8:16:32:64-S128"
target triple = "x86_64-pc-linux-gnu"

@.str = private unnamed_addr constant [40 x i8] c"FreeType or font_manager is not enabled\00", align 1

; Function Attrs: nounwind uwtable
define void @lv_example_font_manager_1() #0 {
  %1 = alloca ptr, align 8
  call void @llvm.lifetime.start.p0(i64 8, ptr %1) #3
  %2 = call ptr @lv_screen_active()
  %3 = call ptr @lv_label_create(ptr noundef %2)
  store ptr %3, ptr %1, align 8, !tbaa !3
  %4 = load ptr, ptr %1, align 8, !tbaa !3
  call void @lv_label_set_text(ptr noundef %4, ptr noundef @.str)
  %5 = load ptr, ptr %1, align 8, !tbaa !3
  call void @lv_obj_center(ptr noundef %5)
  call void @llvm.lifetime.end.p0(i64 8, ptr %1) #3
  ret void
}

; Function Attrs: nocallback nofree nosync nounwind willreturn memory(argmem: readwrite)
declare void @llvm.lifetime.start.p0(i64 immarg, ptr captures(none)) #1

declare ptr @lv_label_create(ptr noundef) #2

declare ptr @lv_screen_active() #2

declare void @lv_label_set_text(ptr noundef, ptr noundef) #2

declare void @lv_obj_center(ptr noundef) #2

; Function Attrs: nocallback nofree nosync nounwind willreturn memory(argmem: readwrite)
declare void @llvm.lifetime.end.p0(i64 immarg, ptr captures(none)) #1


!llvm.module.flags = !{!0, !1, !2}

!0 = !{i32 1, !"wchar_size", i32 4}
!1 = !{i32 8, !"PIC Level", i32 2}
!2 = !{i32 7, !"uwtable", i32 2}
!3 = !{!4, !4, i64 0}
!4 = !{!"p1 _ZTS9_lv_obj_t", !5, i64 0}
!5 = !{!"any pointer", !6, i64 0}
!6 = !{!"omnipotent char", !7, i64 0}
!7 = !{!"Simple C/C++ TBAA"}
